target datalayout = "e-m:e-p270:32:32-p271:32:32-p272:64:64-i64:64-i128:128-f80:128-n8:16:32:64-S128"
target triple = "x86_64-pc-linux-gnu"

@hf_bitcoin_msg_filterload = internal global i32 0, align 4
@hf_msg_filterload_filter = internal global i32 0, align 4
@hf_msg_filterload_nhashfunc = internal global i32 0, align 4
@hf_msg_filterload_ntweak = internal global i32 0, align 4
@hf_msg_filterload_nflags = internal global i32 0, align 4
@ett_bitcoin_msg = internal global i32 0, align 4

; Function Attrs: null_pointer_is_valid sspstrong uwtable
define internal i32 @dissect_bitcoin_msg_filterload(ptr noundef %0, ptr noundef %1, ptr noundef %2, ptr noundef %3) #0 {
  %5 = alloca ptr, align 8
  %6 = alloca ptr, align 8
  %7 = alloca ptr, align 8
  %8 = alloca ptr, align 8
  %9 = alloca ptr, align 8
  %10 = alloca i32, align 4
  store ptr %0, ptr %5, align 8
  store ptr %1, ptr %6, align 8
  store ptr %2, ptr %7, align 8
  store ptr %3, ptr %8, align 8
  call void @llvm.lifetime.start.p0(i64 8, ptr %9) #4
  call void @llvm.lifetime.start.p0(i64 4, ptr %10) #4
  store i32 0, ptr %10, align 4
  %11 = load ptr, ptr %7, align 8
  %12 = load i32, ptr @hf_bitcoin_msg_filterload, align 4
  %13 = load ptr, ptr %5, align 8
  %14 = load i32, ptr %10, align 4
  %15 = call ptr @proto_tree_add_item(ptr noundef %11, i32 noundef %12, ptr noundef %13, i32 noundef %14, i32 noundef -1, i32 noundef 0)
  store ptr %15, ptr %9, align 8
  %16 = load ptr, ptr %9, align 8
  %17 = load i32, ptr @ett_bitcoin_msg, align 4
  %18 = call ptr @proto_item_add_subtree(ptr noundef %16, i32 noundef %17)
  store ptr %18, ptr %7, align 8
  %19 = load ptr, ptr %7, align 8
  %20 = load i32, ptr @hf_msg_filterload_filter, align 4
  %21 = load ptr, ptr %5, align 8
  %22 = call ptr @create_data_tree(ptr noundef %19, i32 noundef %20, ptr noundef %21, ptr noundef %10)
  %23 = load ptr, ptr %7, align 8
  %24 = load i32, ptr @hf_msg_filterload_nhashfunc, align 4
  %25 = load ptr, ptr %5, align 8
  %26 = load i32, ptr %10, align 4
  %27 = call ptr @proto_tree_add_item(ptr noundef %23, i32 noundef %24, ptr noundef %25, i32 noundef %26, i32 noundef 4, i32 noundef -2147483648)
  %28 = load i32, ptr %10, align 4
  %29 = add i32 %28, 4
  store i32 %29, ptr %10, align 4
  %30 = load ptr, ptr %7, align 8
  %31 = load i32, ptr @hf_msg_filterload_ntweak, align 4
  %32 = load ptr, ptr %5, align 8
  %33 = load i32, ptr %10, align 4
  %34 = call ptr @proto_tree_add_item(ptr noundef %30, i32 noundef %31, ptr noundef %32, i32 noundef %33, i32 noundef 4, i32 noundef -2147483648)
  %35 = load i32, ptr %10, align 4
  %36 = add i32 %35, 4
  store i32 %36, ptr %10, align 4
  %37 = load ptr, ptr %7, align 8
  %38 = load i32, ptr @hf_msg_filterload_nflags, align 4
  %39 = load ptr, ptr %5, align 8
  %40 = load i32, ptr %10, align 4
  %41 = call ptr @proto_tree_add_item(ptr noundef %37, i32 noundef %38, ptr noundef %39, i32 noundef %40, i32 noundef 1, i32 noundef -2147483648)
  %42 = load i32, ptr %10, align 4
  %43 = add i32 %42, 1
  store i32 %43, ptr %10, align 4
  %44 = load i32, ptr %10, align 4
  call void @llvm.lifetime.end.p0(i64 4, ptr %10) #4
  call void @llvm.lifetime.end.p0(i64 8, ptr %9) #4
  ret i32 %44
}