; Function Attrs: null_pointer_is_valid sspstrong uwtable
define internal noundef i32 @dissect_bitcoin_msg_filterload(ptr noundef %0, ptr readnone captures(none) %1, ptr noundef %2, ptr readnone captures(none) %3) #0 {
  %5 = alloca i32, align 4
  call void @llvm.lifetime.start.p0(i64 4, ptr nonnull %5) #5
  store i32 0, ptr %5, align 4
  %6 = load i32, ptr @hf_bitcoin_msg_filterload, align 4
  %7 = tail call ptr @proto_tree_add_item(ptr noundef %2, i32 noundef %6, ptr noundef %0, i32 noundef 0, i32 noundef -1, i32 noundef 0)
  %8 = load i32, ptr @ett_bitcoin_msg, align 4
  %9 = tail call ptr @proto_item_add_subtree(ptr noundef %7, i32 noundef %8)
  %10 = load i32, ptr @hf_msg_filterload_filter, align 4
  call fastcc void @create_data_tree(ptr noundef %9, i32 noundef %10, ptr noundef %0, ptr noundef nonnull %5)
  %11 = load i32, ptr @hf_msg_filterload_nhashfunc, align 4
  %12 = load i32, ptr %5, align 4
  %13 = tail call ptr @proto_tree_add_item(ptr noundef %9, i32 noundef %11, ptr noundef %0, i32 noundef %12, i32 noundef 4, i32 noundef -2147483648)
  %14 = add i32 %12, 4
  %15 = load i32, ptr @hf_msg_filterload_ntweak, align 4
  %16 = tail call ptr @proto_tree_add_item(ptr noundef %9, i32 noundef %15, ptr noundef %0, i32 noundef %14, i32 noundef 4, i32 noundef -2147483648)
  %17 = add i32 %12, 8
  %18 = load i32, ptr @hf_msg_filterload_nflags, align 4
  %19 = tail call ptr @proto_tree_add_item(ptr noundef %9, i32 noundef %18, ptr noundef %0, i32 noundef %17, i32 noundef 1, i32 noundef -2147483648)
  %20 = add i32 %12, 9
  call void @llvm.lifetime.end.p0(i64 4, ptr nonnull %5) #5
  ret i32 %20
}